; Function Attrs: nounwind sspstrong uwtable
define internal noundef i64 @strscan_get_byte(i64 noundef %0) #0 {
  %2 = tail call ptr @rb_check_typeddata(i64 noundef %0, ptr noundef nonnull @strscanner_type) #12
  %3 = getelementptr inbounds nuw i8, ptr %2, i64 8
  %4 = load i64, ptr %3, align 8, !tbaa !23
  %5 = icmp eq i64 %4, 4
  br i1 %5, label %6, label %8

6:                                                ; preds = %1
  %7 = load i64, ptr @rb_eArgError, align 8, !tbaa !10
  tail call void (i64, ptr, ...) @rb_raise(i64 noundef %7, ptr noundef nonnull @.str.66) #14
  unreachable

8:                                                ; preds = %1
  %9 = load i64, ptr %2, align 8, !tbaa !18
  %10 = and i64 %9, -2
  store i64 %10, ptr %2, align 8, !tbaa !18
  %11 = getelementptr inbounds nuw i8, ptr %2, i64 24
  %12 = load i64, ptr %11, align 8, !tbaa !29
  %13 = inttoptr i64 %4 to ptr
  %14 = getelementptr inbounds nuw i8, ptr %13, i64 16
  %15 = load i64, ptr %14, align 8, !tbaa !32
  %.not = icmp slt i64 %12, %15
  br i1 %.not, label %16, label %extract_range.exit

16:                                               ; preds = %8
  %17 = getelementptr inbounds nuw i8, ptr %2, i64 16
  store i64 %12, ptr %17, align 8, !tbaa !28
  %18 = add nsw i64 %12, 1
  store i64 %18, ptr %11, align 8, !tbaa !29
  %19 = or i64 %9, 1
  store i64 %19, ptr %2, align 8, !tbaa !18
  %20 = getelementptr inbounds nuw i8, ptr %2, i64 32
  tail call void @onig_region_clear(ptr noundef nonnull %20) #12
  %21 = getelementptr inbounds nuw i8, ptr %2, i64 64
  %22 = load i8, ptr %21, align 8, !tbaa !27, !range !41, !noundef !42
  %23 = trunc nuw i8 %22 to i1
  br i1 %23, label %24, label %28

24:                                               ; preds = %16
  %25 = load i64, ptr %17, align 8, !tbaa !28
  %26 = trunc i64 %25 to i32
  %27 = load i64, ptr %11, align 8, !tbaa !29
  br label %adjust_registers_to_matched.exit

28:                                               ; preds = %16
  %29 = load i64, ptr %11, align 8, !tbaa !29
  %30 = load i64, ptr %17, align 8, !tbaa !28
  %31 = sub nsw i64 %29, %30
  br label %adjust_registers_to_matched.exit

adjust_registers_to_matched.exit:                 ; preds = %24, %28
  %.sink9.i = phi i64 [ %31, %28 ], [ %27, %24 ]
  %.sink.i = phi i32 [ 0, %28 ], [ %26, %24 ]
  %32 = trunc i64 %.sink9.i to i32
  %33 = tail call i32 @onig_region_set(ptr noundef nonnull %20, i32 noundef 0, i32 noundef %.sink.i, i32 noundef %32) #12
  %34 = getelementptr inbounds nuw i8, ptr %2, i64 40
  %35 = load ptr, ptr %34, align 8, !tbaa !43
  %36 = load i64, ptr %35, align 8, !tbaa !10
  %37 = load i8, ptr %21, align 8, !tbaa !27, !range !41, !noundef !42
  %38 = trunc nuw i8 %37 to i1
  br i1 %38, label %adjust_register_position.exit.thread, label %42

adjust_register_position.exit.thread:             ; preds = %adjust_registers_to_matched.exit
  %39 = getelementptr inbounds nuw i8, ptr %2, i64 48
  %40 = load ptr, ptr %39, align 8, !tbaa !44
  %41 = load i64, ptr %40, align 8, !tbaa !10
  br label %adjust_register_position.exit17

42:                                               ; preds = %adjust_registers_to_matched.exit
  %43 = load i64, ptr %17, align 8, !tbaa !28
  %44 = add nsw i64 %43, %36
  %45 = getelementptr inbounds nuw i8, ptr %2, i64 48
  %46 = load ptr, ptr %45, align 8, !tbaa !44
  %47 = load i64, ptr %46, align 8, !tbaa !10
  %48 = add nsw i64 %47, %43
  br label %adjust_register_position.exit17

adjust_register_position.exit17:                  ; preds = %adjust_register_position.exit.thread, %42
  %.0.i20 = phi i64 [ %44, %42 ], [ %36, %adjust_register_position.exit.thread ]
  %.0.i16 = phi i64 [ %48, %42 ], [ %41, %adjust_register_position.exit.thread ]
  %49 = load i64, ptr %3, align 8, !tbaa !23
  %50 = inttoptr i64 %49 to ptr
  %51 = getelementptr inbounds nuw i8, ptr %50, i64 16
  %52 = load i64, ptr %51, align 8, !tbaa !32
  %53 = icmp sgt i64 %.0.i20, %52
  br i1 %53, label %extract_range.exit, label %54

54:                                               ; preds = %adjust_register_position.exit17
  %55 = tail call noundef i64 @llvm.smin.i64(i64 %.0.i16, i64 %52)
  %56 = load i64, ptr %50, align 8, !tbaa !34, !noalias !48
  %57 = and i64 %56, 8192
  %.not.i.i.i = icmp eq i64 %57, 0
  %58 = getelementptr inbounds nuw i8, ptr %50, i64 24
  br i1 %.not.i.i.i, label %RSTRING_PTR.exit.i, label %59

59:                                               ; preds = %54
  %.sroa.2.0.copyload.i.i = load ptr, ptr %58, align 8
  br label %RSTRING_PTR.exit.i

RSTRING_PTR.exit.i:                               ; preds = %59, %54
  %.sroa.2.0.i.i = phi ptr [ %.sroa.2.0.copyload.i.i, %59 ], [ %58, %54 ]
  %60 = getelementptr inbounds i8, ptr %.sroa.2.0.i.i, i64 %.0.i20
  %61 = sub nsw i64 %55, %.0.i20
  %62 = tail call i64 @rb_str_new(ptr noundef %60, i64 noundef %61) #12
  %63 = load i64, ptr %3, align 8, !tbaa !23
  tail call void @rb_enc_copy(i64 noundef %62, i64 noundef %63) #12
  br label %extract_range.exit

extract_range.exit:                               ; preds = %RSTRING_PTR.exit.i, %adjust_register_position.exit17, %8
  %.0 = phi i64 [ 4, %8 ], [ %62, %RSTRING_PTR.exit.i ], [ 4, %adjust_register_position.exit17 ]
  ret i64 %.0
}